target datalayout = "e-m:e-p270:32:32-p271:32:32-p272:64:64-i64:64-i128:128-f80:128-n8:16:32:64-S128"
target triple = "x86_64-unknown-linux-gnu"

%class.ast_mark = type { ptr, %class.obj_mark, %class.obj_mark.0 }
%class.obj_mark = type { %struct.default_t2uint, %class.bit_vector }
%struct.default_t2uint = type { i8 }
%class.bit_vector = type { i32, i32, ptr }
%class.obj_mark.0 = type { %"struct.ast_mark::decl2uint", %class.bit_vector }
%"struct.ast_mark::decl2uint" = type { i8 }
%class.qe_lite = type { ptr }
%class.params_ref = type { ptr }
%class.svector.46 = type { %class.vector.47 }
%class.vector.47 = type { ptr }
%class.dependent_expr_state = type { ptr, i32, i8, i32, i32, i32, %class.ast_mark, %class.ref_vector.100, %class.trail_stack }
%class.ref_vector.100 = type { %class.ref_vector_core.101 }
%class.ref_vector_core.101 = type { %class.ref_manager_wrapper.102, %class.ptr_vector.103 }
%class.ref_manager_wrapper.102 = type { ptr }
%class.ptr_vector.103 = type { %class.vector.104 }
%class.vector.104 = type { ptr }
%class.trail_stack = type { %class.ptr_vector.105, %class.svector.46, %class.region }
%class.ptr_vector.105 = type { %class.vector.106 }
%class.vector.106 = type { ptr }
%class.region = type { ptr, ptr, ptr, ptr, ptr }
%"class.(anonymous namespace)::qe_lite_simplifier" = type { %class.dependent_expr_simplifier, %class.params_ref, %class.qe_lite }
%class.dependent_expr_simplifier = type { ptr, ptr, ptr, ptr }

@_ZN7qe_liteC1ER11ast_managerRK10params_refb = hidden unnamed_addr alias void (ptr, ptr, ptr, i1), ptr @_ZN7qe_liteC2ER11ast_managerRK10params_refb
@_ZN7qe_liteD1Ev = hidden unnamed_addr alias void (ptr), ptr @_ZN7qe_liteD2Ev

; Function Attrs: mustprogress nounwind uwtable
define linkonce_odr hidden void @_ZN25dependent_expr_simplifierD2Ev(ptr noundef nonnull align 8 dereferenceable(32) %this) unnamed_addr #5 comdat align 2 {
entry:
  %this.addr = alloca ptr, align 8
  store ptr %this, ptr %this.addr, align 8
  ret void
}

; Function Attrs: mustprogress nounwind uwtable
define linkonce_odr hidden void @_ZN10params_refC2Ev(ptr noundef nonnull align 8 dereferenceable(8) %this) unnamed_addr #5 comdat align 2 {
entry:
  %this.addr = alloca ptr, align 8
  store ptr %this, ptr %this.addr, align 8
  %this1 = load ptr, ptr %this.addr, align 8
  %m_params = getelementptr inbounds %class.params_ref, ptr %this1, i32 0, i32 0
  store ptr null, ptr %m_params, align 8
  ret void
}

; Function Attrs: mustprogress nounwind uwtable
define linkonce_odr hidden void @_ZN25dependent_expr_simplifierC2ER11ast_managerR20dependent_expr_state(ptr noundef nonnull align 8 dereferenceable(32) %this, ptr noundef nonnull align 8 dereferenceable(976) %m, ptr noundef nonnull align 8 dereferenceable(160) %s) unnamed_addr #5 comdat align 2 {
entry:
  %this.addr = alloca ptr, align 8
  %m.addr = alloca ptr, align 8
  %s.addr = alloca ptr, align 8
  store ptr %this, ptr %this.addr, align 8
  store ptr %m, ptr %m.addr, align 8
  store ptr %s, ptr %s.addr, align 8
  %this1 = load ptr, ptr %this.addr, align 8
  store ptr getelementptr inbounds ({ [13 x ptr] }, ptr @_ZTV25dependent_expr_simplifier, i32 0, i32 0, i32 2), ptr %this1, align 8
  %m2 = getelementptr inbounds %class.dependent_expr_simplifier, ptr %this1, i32 0, i32 1
  %0 = load ptr, ptr %m.addr, align 8
  store ptr %0, ptr %m2, align 8
  %m_fmls = getelementptr inbounds %class.dependent_expr_simplifier, ptr %this1, i32 0, i32 2
  %1 = load ptr, ptr %s.addr, align 8
  store ptr %1, ptr %m_fmls, align 8
  %m_trail = getelementptr inbounds %class.dependent_expr_simplifier, ptr %this1, i32 0, i32 3
  %2 = load ptr, ptr %s.addr, align 8
  %m_trail3 = getelementptr inbounds %class.dependent_expr_state, ptr %2, i32 0, i32 8
  store ptr %m_trail3, ptr %m_trail, align 8
  ret void
}

; Function Attrs: mustprogress uwtable
define internal void @_ZN12_GLOBAL__N_118qe_lite_simplifierC2ER11ast_managerRK10params_refR20dependent_expr_state(ptr noundef nonnull align 8 dereferenceable(48) %this, ptr noundef nonnull align 8 dereferenceable(976) %m, ptr noundef nonnull align 8 dereferenceable(8) %p, ptr noundef nonnull align 8 dereferenceable(160) %st) unnamed_addr #4 align 2 personality ptr @__gxx_personality_v0 {
entry:
  %this.addr = alloca ptr, align 8
  %m.addr = alloca ptr, align 8
  %p.addr = alloca ptr, align 8
  %st.addr = alloca ptr, align 8
  %exn.slot = alloca ptr, align 8
  %ehselector.slot = alloca i32, align 4
  store ptr %this, ptr %this.addr, align 8
  store ptr %m, ptr %m.addr, align 8
  store ptr %p, ptr %p.addr, align 8
  store ptr %st, ptr %st.addr, align 8
  %this1 = load ptr, ptr %this.addr, align 8
  %0 = load ptr, ptr %m.addr, align 8
  %1 = load ptr, ptr %st.addr, align 8
  call void @_ZN25dependent_expr_simplifierC2ER11ast_managerR20dependent_expr_state(ptr noundef nonnull align 8 dereferenceable(32) %this1, ptr noundef nonnull align 8 dereferenceable(976) %0, ptr noundef nonnull align 8 dereferenceable(160) %1)
  store ptr getelementptr inbounds ({ [13 x ptr] }, ptr @_ZTVN12_GLOBAL__N_118qe_lite_simplifierE, i32 0, i32 0, i32 2), ptr %this1, align 8
  %m_params = getelementptr inbounds %"class.(anonymous namespace)::qe_lite_simplifier", ptr %this1, i32 0, i32 1
  invoke void @_ZN10params_refC2Ev(ptr noundef nonnull align 8 dereferenceable(8) %m_params)
          to label %invoke.cont unwind label %lpad

invoke.cont:                                      ; preds = %entry
  %m_qe = getelementptr inbounds %"class.(anonymous namespace)::qe_lite_simplifier", ptr %this1, i32 0, i32 2
  %2 = load ptr, ptr %m.addr, align 8
  %3 = load ptr, ptr %p.addr, align 8
  invoke void @_ZN7qe_liteC1ER11ast_managerRK10params_refb(ptr noundef nonnull align 8 dereferenceable(8) %m_qe, ptr noundef nonnull align 8 dereferenceable(976) %2, ptr noundef nonnull align 8 dereferenceable(8) %3, i1 noundef zeroext true)
          to label %invoke.cont3 unwind label %lpad2

invoke.cont3:                                     ; preds = %invoke.cont
  %4 = load ptr, ptr %p.addr, align 8
  %vtable = load ptr, ptr %this1, align 8
  %vfn = getelementptr inbounds ptr, ptr %vtable, i64 8
  %5 = load ptr, ptr %vfn, align 8
  invoke void %5(ptr noundef nonnull align 8 dereferenceable(48) %this1, ptr noundef nonnull align 8 dereferenceable(8) %4)
          to label %invoke.cont5 unwind label %lpad4

invoke.cont5:                                     ; preds = %invoke.cont3
  ret void

lpad:                                             ; preds = %entry
  %6 = landingpad { ptr, i32 }
          cleanup
  %7 = extractvalue { ptr, i32 } %6, 0
  store ptr %7, ptr %exn.slot, align 8
  %8 = extractvalue { ptr, i32 } %6, 1
  store i32 %8, ptr %ehselector.slot, align 4
  br label %ehcleanup6

lpad2:                                            ; preds = %invoke.cont
  %9 = landingpad { ptr, i32 }
          cleanup
  %10 = extractvalue { ptr, i32 } %9, 0
  store ptr %10, ptr %exn.slot, align 8
  %11 = extractvalue { ptr, i32 } %9, 1
  store i32 %11, ptr %ehselector.slot, align 4
  br label %ehcleanup

lpad4:                                            ; preds = %invoke.cont3
  %12 = landingpad { ptr, i32 }
          cleanup
  %13 = extractvalue { ptr, i32 } %12, 0
  store ptr %13, ptr %exn.slot, align 8
  %14 = extractvalue { ptr, i32 } %12, 1
  store i32 %14, ptr %ehselector.slot, align 4
  call void @_ZN7qe_liteD1Ev(ptr noundef nonnull align 8 dereferenceable(8) %m_qe) #3
  br label %ehcleanup

ehcleanup:                                        ; preds = %lpad4, %lpad2
  call void @_ZN10params_refD1Ev(ptr noundef nonnull align 8 dereferenceable(8) %m_params) #3
  br label %ehcleanup6

ehcleanup6:                                       ; preds = %ehcleanup, %lpad
  call void @_ZN25dependent_expr_simplifierD2Ev(ptr noundef nonnull align 8 dereferenceable(32) %this1) #3
  br label %eh.resume

eh.resume:                                        ; preds = %ehcleanup6
  %exn = load ptr, ptr %exn.slot, align 8
  %sel = load i32, ptr %ehselector.slot, align 4
  %lpad.val = insertvalue { ptr, i32 } poison, ptr %exn, 0
  %lpad.val7 = insertvalue { ptr, i32 } %lpad.val, i32 %sel, 1
  resume { ptr, i32 } %lpad.val7
}

; Function Attrs: mustprogress uwtable
define hidden noundef ptr @_Z21mk_qe_lite_simplifierR11ast_managerRK10params_refR20dependent_expr_state(ptr noundef nonnull align 8 dereferenceable(976) %m, ptr noundef nonnull align 8 dereferenceable(8) %p, ptr noundef nonnull align 8 dereferenceable(160) %st) #4 {
entry:
  %m.addr = alloca ptr, align 8
  %p.addr = alloca ptr, align 8
  %st.addr = alloca ptr, align 8
  store ptr %m, ptr %m.addr, align 8
  store ptr %p, ptr %p.addr, align 8
  store ptr %st, ptr %st.addr, align 8
  %call = call noalias noundef ptr @_ZN6memory8allocateEm(i64 noundef 48)
  %0 = load ptr, ptr %m.addr, align 8
  %1 = load ptr, ptr %p.addr, align 8
  %2 = load ptr, ptr %st.addr, align 8
  call void @_ZN12_GLOBAL__N_118qe_lite_simplifierC2ER11ast_managerRK10params_refR20dependent_expr_state(ptr noundef nonnull align 8 dereferenceable(48) %call, ptr noundef nonnull align 8 dereferenceable(976) %0, ptr noundef nonnull align 8 dereferenceable(8) %1, ptr noundef nonnull align 8 dereferenceable(160) %2)
  ret ptr %call
}