; Function Attrs: mustprogress uwtable
define hidden noundef ptr @_Z21mk_qe_lite_simplifierR11ast_managerRK10params_refR20dependent_expr_state(ptr noundef nonnull align 8 dereferenceable(976) %m, ptr noundef nonnull align 8 dereferenceable(8) %p, ptr noundef nonnull align 8 dereferenceable(160) %st) #3 personality ptr @__gxx_personality_v0 {
entry:
  %call = tail call noalias noundef ptr @_ZN6memory8allocateEm(i64 noundef 48)
  %m2.i.i = getelementptr inbounds i8, ptr %call, i64 8
  store ptr %m, ptr %m2.i.i, align 8
  %m_fmls.i.i = getelementptr inbounds i8, ptr %call, i64 16
  store ptr %st, ptr %m_fmls.i.i, align 8
  %m_trail.i.i = getelementptr inbounds i8, ptr %call, i64 24
  %m_trail3.i.i = getelementptr inbounds i8, ptr %st, i64 104
  store ptr %m_trail3.i.i, ptr %m_trail.i.i, align 8
  store ptr getelementptr inbounds ({ [13 x ptr] }, ptr @_ZTVN12_GLOBAL__N_118qe_lite_simplifierE, i64 0, i32 0, i64 2), ptr %call, align 8
  %m_params.i = getelementptr inbounds i8, ptr %call, i64 32
  store ptr null, ptr %m_params.i, align 8
  %m_qe.i = getelementptr inbounds i8, ptr %call, i64 40
  %call.i4.i = invoke noalias noundef ptr @_ZN6memory8allocateEm(i64 noundef 2632)
          to label %call.i.noexc.i unwind label %lpad2.i

call.i.noexc.i:                                   ; preds = %entry
  invoke void @_ZN7qe_lite4implC2ER11ast_managerRK10params_refb(ptr noundef nonnull align 8 dereferenceable(2625) %call.i4.i, ptr noundef nonnull align 8 dereferenceable(976) %m, ptr noundef nonnull align 8 dereferenceable(8) %p, i1 noundef zeroext true)
          to label %invoke.cont3.i unwind label %lpad2.i

invoke.cont3.i:                                   ; preds = %call.i.noexc.i
  store ptr %call.i4.i, ptr %m_qe.i, align 8
  %vtable.i = load ptr, ptr %call, align 8
  %vfn.i = getelementptr inbounds i8, ptr %vtable.i, i64 64
  %0 = load ptr, ptr %vfn.i, align 8
  invoke void %0(ptr noundef nonnull align 8 dereferenceable(48) %call, ptr noundef nonnull align 8 dereferenceable(8) %p)
          to label %_ZN12_GLOBAL__N_118qe_lite_simplifierC2ER11ast_managerRK10params_refR20dependent_expr_state.exit unwind label %lpad4.i

lpad2.i:                                          ; preds = %call.i.noexc.i, %entry
  %1 = landingpad { ptr, i32 }
          cleanup
  br label %ehcleanup.i

lpad4.i:                                          ; preds = %invoke.cont3.i
  %2 = landingpad { ptr, i32 }
          cleanup
  tail call void @_ZN7qe_liteD2Ev(ptr noundef nonnull align 8 dereferenceable(8) %m_qe.i) #23
  br label %ehcleanup.i

ehcleanup.i:                                      ; preds = %lpad4.i, %lpad2.i
  %.pn.i = phi { ptr, i32 } [ %2, %lpad4.i ], [ %1, %lpad2.i ]
  tail call void @_ZN10params_refD1Ev(ptr noundef nonnull align 8 dereferenceable(8) %m_params.i) #23
  resume { ptr, i32 } %.pn.i

_ZN12_GLOBAL__N_118qe_lite_simplifierC2ER11ast_managerRK10params_refR20dependent_expr_state.exit: ; preds = %invoke.cont3.i
  ret ptr %call
}